

  Address         Publics by Value

 0001:0000009C       Caption
 0001:000000A4       Text
 0001:000000BC       aError
 0001:000000C4       aErrorCommandNo
 0001:000000E0       String
 0001:000000E8       aHardwareIdIsnT
 0001:00000108       aTahoma
 0001:00000110       aError_0
 0001:00000118       aErrorUnknownCo
 0001:00000130       aError_1
 0001:00000138       aErrorCommand_0
 0001:00000154       aError_2
 0001:0000015C       aErrorUnknown_0
 0001:00000174       aError_3
 0001:0000017C       aErrorCommand_1
 0001:000001B0       aHQAAACQAALCrac
 0001:000002A0       start
 0001:000002D0       DialogFunc
 0001:000003B2       on_WM_INITDIALOG
 0001:00000546       on_WM_COMMAND
 0001:00000602       return0
 0001:00000604       return
 0001:00000610       VM_allocate
 0001:000007C0       VerifySerial1
 0001:0000086E       VerifySerial1_RestoreContext
 0001:00000890       VerifySerial2
 0001:000008CE       VM_increment_IP
 0001:0000090C       VM_Fetch
 0001:0000093D       case_OPCODE_00
 0001:0000094A       case_OPCODE_06
 0001:00000957       case_OPCODE_01
 0001:00000964       case_OPCODE_03
 0001:00000971       case_OPCODE_05
 0001:0000097E       case_OPCODE_04
 0001:0000098B       case_OPCODE_02
 0001:00000998       case_OPCODE_07
 0001:000009A5       case_OPCODE_0A
 0001:000009B2       case_OPCODE_0B
 0001:000009BF       case_OPCODE_0E
 0001:000009CC       case_OPCODE_0C
 0001:000009D9       case_OPCODE_0D
 0001:000009E6       case_OPCODE_08
 0001:000009F3       case_OPCODE_0F
 0001:00000A00       case_OPCODE_10
 0001:00000A0D       case_OPCODE_11
 0001:00000A1A       case_OPCODE_12
 0001:00000A27       case_OPCODE_13
 0001:00000A34       case_OPCODE_17
 0001:00000A41       case_OPCODE_14
 0001:00000A4E       case_OPCODE_15
 0001:00000A5B       case_OPCODE_16
 0001:00000A68       case_OPCODE_19
 0001:00000A72       case_OPCODE_18
 0001:00000A7C       case_OPCODE_19H
 0001:00000A97       VM_IncrementIP
 0001:00000B5F       VM_done
 0001:00000B93       switch_table
 0001:00000C80       bottom2bitsNonzero
 0001:00000D70       ProcessOpcode00
 0001:00000E65       ProcessOpcode00_continued
 0001:00000ED0       ProcessOpcode01h
 0001:00001030       ProcessOpcode03h
 0001:000010D0       ProcessOpcode05h
 0001:00001170       ProcessOpcode04h
 0001:000011CE       _sub_esp_
 0001:000011E7       rep
 0001:00001217       add_esp
 0001:0000125C       return0____
 0001:00001270       ProcessOpcode02h
 0001:000012C1       op02h_command0
 0001:00001336       return0
 0001:0000133B       op02h_command1
 0001:000013B0       _return0
 0001:000013B5       op02h_command2
 0001:00001443       return0__
 0001:00001448       op02h_command3
 0001:000014E9       return0___
 0001:000014EE       op02h_command4
 0001:0000157E       return0____
 0001:00001583       op02h_command5
 0001:000015FA       op02h_command6
 0001:00001676       return0_
 0001:000016A0       ProcessOpcode07h
 0001:00001746       return1
 0001:00001750       ProcessOpcode06h
 0001:000017A2       return1
 0001:000017B0       ProcessOpcode0Ah
 0001:000018EB       ProcessOpcode0Ah_continued
 0001:00001970       ProcessOpcode0Dh
 0001:00001BC0       ProcessOpcode0Bh
 0001:00001D20       ProcessOpcode0Ch
 0001:00001D70       ProcessOpcode08h
 0001:00001E10       ProcessOpcode0Eh
 0001:00001E40       ProcessOpcode11h
 0001:00001E97       b1b0_equals_11_
 0001:00001EA6       b1b0_equals_01
 0001:00001EBB       b0_equals_0
 0001:00001EC7       b1b0_equals_10
 0001:00001EDD       b1b0_equals_00
 0001:00001EFA       return0_
 0001:00001F00       ProcessOpcode13h
 0001:00001F57       b1b0_equals_11
 0001:00001F66       b1b0_equals_01_
 0001:00001F7B       b0_equals_0
 0001:00001F8F       b1b0_equals_10_
 0001:00001FB4       loop_continue
 0001:00001FBD       loop_init
 0001:00002005       continue
 0001:00002007       loop_done
 0001:0000201C       b1b0_equals_00
 0001:0000204F       loop_continue_
 0001:00002058       loop_init_
 0001:00002096       regbit_membit_equal
 0001:0000209B       regbit_membit_not_equal
 0001:000020B0       continue_
 0001:000020B2       save_value
 0001:000020C6       return0
 0001:000020D0       ProcessOpcode12h
 0001:00002127       bit1bit0_equals_11
 0001:00002136       bit1bit0_equals_01
 0001:0000214B       bit0_equals_0
 0001:00002157       bit1bit0_equals_10
 0001:0000216F       bit1bit0_equals_00
 0001:0000218C       return0
 0001:000021A0       ProcessOpcode0Fh
 0001:000021B0       ProcessOpcode10h
 0001:000021F5       byte15h_equal_0
 0001:00002211       byte15h_equal_1
 0001:00002237       return0_
 0001:00002240       ProcessOpcode17h
 0001:00002269       cmd_byte_is_1
 0001:00002288       cmd_byte_is_not_1
 0001:000022C0       ProcessOpcode14
 0001:0000235D       loop_end
 0001:00002370       ProcessOpcode15
 0001:000023A4       loop_post
 0001:000023AD       loop_body
 0001:000023D8       loop_end
 0001:00002410       ProcessOpcode16
 0001:00002462       are_equal
 0001:0000247C       not_equal
 0001:000024A0       ProcessOpcode19h
 0001:00002500       ProcessOpcode18
 0001:00002592       quit
 0001:000025A0       VerifySerial0
 0001:00003001       return
 0001:00003010       exponentiate
 0001:00003126       strcpy
 0001:0000312C       memset
 0001:00003132       strlen
 0001:00003370       aCreatefontindi
 0002:00000044       const_9E3Ch
 0002:00000048       const_4C5BC478
 0002:000001B0       hWnd
 0002:000001B4       buff_pass
 0002:000001E8       pCallVerifySerial1
 0002:000001F0       VM_mem2
 0002:00000250       VM_memory_
 0002:000002AC       VM_memory_or2flag
 0002:000002BC       VM_newJumpTarget
 0002:000002C4       pVerifySerial1Stack
 0002:000002C8       heap_pointer
 0002:000002D0       saved_eax
 0002:000002D8       buff_user
 0002:0000030C       p40186E
 0002:00000314       dwNewLong
 0002:00000328       hInstance
 0002:0000032C       hHeap
 0002:00000334       pVM_Program_CURRENT
 0002:00000338       pContext0
 0002:00000340       pContext1
 0002:00000344       lastContextECX
 0002:00000350       pVM_Program_INIT
 0002:00000378       hDlg
 0002:00000380       VM_Program_LIMIT
 0003:00001000       VM_program

Program entry point at 0001:000002A0
